
/home/hh/ysyx-workbench/am-kernels/tests/cpu-tests/build/hello-str-riscv32-nemu.elf:     file format elf32-littleriscv


Disassembly of section .text:

80000000 <_start>:
80000000:	00000413          	li	s0,0
80000004:	00009117          	auipc	sp,0x9
80000008:	ffc10113          	addi	sp,sp,-4 # 80009000 <_end>
8000000c:	0fc000ef          	jal	80000108 <_trm_init>

80000010 <check>:
80000010:	00050463          	beqz	a0,80000018 <check+0x8>
80000014:	00008067          	ret
80000018:	ff010113          	addi	sp,sp,-16
8000001c:	00100513          	li	a0,1
80000020:	00112623          	sw	ra,12(sp)
80000024:	0d8000ef          	jal	800000fc <halt>

80000028 <main>:
80000028:	ff010113          	addi	sp,sp,-16
8000002c:	00000617          	auipc	a2,0x0
80000030:	33c60613          	addi	a2,a2,828 # 80000368 <_etext>
80000034:	00000597          	auipc	a1,0x0
80000038:	34458593          	addi	a1,a1,836 # 80000378 <_etext+0x10>
8000003c:	00000517          	auipc	a0,0x0
80000040:	42850513          	addi	a0,a0,1064 # 80000464 <buf>
80000044:	00112623          	sw	ra,12(sp)
80000048:	2e4000ef          	jal	8000032c <sprintf>
8000004c:	00000597          	auipc	a1,0x0
80000050:	31c58593          	addi	a1,a1,796 # 80000368 <_etext>
80000054:	00000517          	auipc	a0,0x0
80000058:	41050513          	addi	a0,a0,1040 # 80000464 <buf>
8000005c:	0cc000ef          	jal	80000128 <strcmp>
80000060:	00153513          	seqz	a0,a0
80000064:	fadff0ef          	jal	80000010 <check>
80000068:	00200713          	li	a4,2
8000006c:	00100693          	li	a3,1
80000070:	00100613          	li	a2,1
80000074:	00000597          	auipc	a1,0x0
80000078:	30858593          	addi	a1,a1,776 # 8000037c <_etext+0x14>
8000007c:	00000517          	auipc	a0,0x0
80000080:	3e850513          	addi	a0,a0,1000 # 80000464 <buf>
80000084:	2a8000ef          	jal	8000032c <sprintf>
80000088:	00000597          	auipc	a1,0x0
8000008c:	30458593          	addi	a1,a1,772 # 8000038c <_etext+0x24>
80000090:	00000517          	auipc	a0,0x0
80000094:	3d450513          	addi	a0,a0,980 # 80000464 <buf>
80000098:	090000ef          	jal	80000128 <strcmp>
8000009c:	00153513          	seqz	a0,a0
800000a0:	f71ff0ef          	jal	80000010 <check>
800000a4:	00c00713          	li	a4,12
800000a8:	00a00693          	li	a3,10
800000ac:	00200613          	li	a2,2
800000b0:	00000597          	auipc	a1,0x0
800000b4:	2cc58593          	addi	a1,a1,716 # 8000037c <_etext+0x14>
800000b8:	00000517          	auipc	a0,0x0
800000bc:	3ac50513          	addi	a0,a0,940 # 80000464 <buf>
800000c0:	26c000ef          	jal	8000032c <sprintf>
800000c4:	00000597          	auipc	a1,0x0
800000c8:	2d458593          	addi	a1,a1,724 # 80000398 <_etext+0x30>
800000cc:	00000517          	auipc	a0,0x0
800000d0:	39850513          	addi	a0,a0,920 # 80000464 <buf>
800000d4:	054000ef          	jal	80000128 <strcmp>
800000d8:	00153513          	seqz	a0,a0
800000dc:	f35ff0ef          	jal	80000010 <check>
800000e0:	00c12083          	lw	ra,12(sp)
800000e4:	00000513          	li	a0,0
800000e8:	01010113          	addi	sp,sp,16
800000ec:	00008067          	ret

800000f0 <putch>:
800000f0:	a00007b7          	lui	a5,0xa0000
800000f4:	3ea78c23          	sb	a0,1016(a5) # a00003f8 <_end+0x1fff73f8>
800000f8:	00008067          	ret

800000fc <halt>:
800000fc:	00050513          	mv	a0,a0
80000100:	00100073          	ebreak
80000104:	0000006f          	j	80000104 <halt+0x8>

80000108 <_trm_init>:
80000108:	ff010113          	addi	sp,sp,-16
8000010c:	00000517          	auipc	a0,0x0
80000110:	35450513          	addi	a0,a0,852 # 80000460 <mainargs>
80000114:	00112623          	sw	ra,12(sp)
80000118:	f11ff0ef          	jal	80000028 <main>
8000011c:	00050513          	mv	a0,a0
80000120:	00100073          	ebreak
80000124:	0000006f          	j	80000124 <_trm_init+0x1c>

80000128 <strcmp>:
80000128:	04050e63          	beqz	a0,80000184 <strcmp+0x5c>
8000012c:	04058c63          	beqz	a1,80000184 <strcmp+0x5c>
80000130:	00054783          	lbu	a5,0(a0)
80000134:	02079063          	bnez	a5,80000154 <strcmp+0x2c>
80000138:	0400006f          	j	80000178 <strcmp+0x50>
8000013c:	02f70463          	beq	a4,a5,80000164 <strcmp+0x3c>
80000140:	00154783          	lbu	a5,1(a0)
80000144:	00158713          	addi	a4,a1,1
80000148:	00150513          	addi	a0,a0,1
8000014c:	02078063          	beqz	a5,8000016c <strcmp+0x44>
80000150:	00070593          	mv	a1,a4
80000154:	0005c703          	lbu	a4,0(a1)
80000158:	fe0712e3          	bnez	a4,8000013c <strcmp+0x14>
8000015c:	00078513          	mv	a0,a5
80000160:	00008067          	ret
80000164:	00000513          	li	a0,0
80000168:	00008067          	ret
8000016c:	0015c783          	lbu	a5,1(a1)
80000170:	40f00533          	neg	a0,a5
80000174:	00008067          	ret
80000178:	0005c783          	lbu	a5,0(a1)
8000017c:	40f00533          	neg	a0,a5
80000180:	00008067          	ret
80000184:	ff010113          	addi	sp,sp,-16
80000188:	03900613          	li	a2,57
8000018c:	00000597          	auipc	a1,0x0
80000190:	21c58593          	addi	a1,a1,540 # 800003a8 <_etext+0x40>
80000194:	00000517          	auipc	a0,0x0
80000198:	25050513          	addi	a0,a0,592 # 800003e4 <_etext+0x7c>
8000019c:	00112623          	sw	ra,12(sp)
800001a0:	00c000ef          	jal	800001ac <printf>
800001a4:	00100513          	li	a0,1
800001a8:	f55ff0ef          	jal	800000fc <halt>

800001ac <printf>:
800001ac:	fd010113          	addi	sp,sp,-48
800001b0:	00812423          	sw	s0,8(sp)
800001b4:	00112623          	sw	ra,12(sp)
800001b8:	00b12a23          	sw	a1,20(sp)
800001bc:	00c12c23          	sw	a2,24(sp)
800001c0:	00d12e23          	sw	a3,28(sp)
800001c4:	02e12023          	sw	a4,32(sp)
800001c8:	02f12223          	sw	a5,36(sp)
800001cc:	03012423          	sw	a6,40(sp)
800001d0:	03112623          	sw	a7,44(sp)
800001d4:	00000417          	auipc	s0,0x0
800001d8:	22c40413          	addi	s0,s0,556 # 80000400 <_etext+0x98>
800001dc:	04100513          	li	a0,65
800001e0:	00140413          	addi	s0,s0,1
800001e4:	f0dff0ef          	jal	800000f0 <putch>
800001e8:	00044503          	lbu	a0,0(s0)
800001ec:	fe051ae3          	bnez	a0,800001e0 <printf+0x34>
800001f0:	00000417          	auipc	s0,0x0
800001f4:	21c40413          	addi	s0,s0,540 # 8000040c <_etext+0xa4>
800001f8:	04e00513          	li	a0,78
800001fc:	00140413          	addi	s0,s0,1
80000200:	ef1ff0ef          	jal	800000f0 <putch>
80000204:	00044503          	lbu	a0,0(s0)
80000208:	fe051ae3          	bnez	a0,800001fc <printf+0x50>
8000020c:	00000417          	auipc	s0,0x0
80000210:	21040413          	addi	s0,s0,528 # 8000041c <_etext+0xb4>
80000214:	02000513          	li	a0,32
80000218:	00140413          	addi	s0,s0,1
8000021c:	ed5ff0ef          	jal	800000f0 <putch>
80000220:	00044503          	lbu	a0,0(s0)
80000224:	fe051ae3          	bnez	a0,80000218 <printf+0x6c>
80000228:	00100513          	li	a0,1
8000022c:	ed1ff0ef          	jal	800000fc <halt>

80000230 <vsprintf>:
80000230:	0005c703          	lbu	a4,0(a1)
80000234:	00050793          	mv	a5,a0
80000238:	00000513          	li	a0,0
8000023c:	02070863          	beqz	a4,8000026c <vsprintf+0x3c>
80000240:	02500893          	li	a7,37
80000244:	06400f13          	li	t5,100
80000248:	07300e93          	li	t4,115
8000024c:	06300e13          	li	t3,99
80000250:	03170263          	beq	a4,a7,80000274 <vsprintf+0x44>
80000254:	00e78023          	sb	a4,0(a5)
80000258:	00158593          	addi	a1,a1,1
8000025c:	00150513          	addi	a0,a0,1
80000260:	00178793          	addi	a5,a5,1
80000264:	0005c703          	lbu	a4,0(a1)
80000268:	fe0714e3          	bnez	a4,80000250 <vsprintf+0x20>
8000026c:	00078023          	sb	zero,0(a5)
80000270:	00008067          	ret
80000274:	0015c703          	lbu	a4,1(a1)
80000278:	00258313          	addi	t1,a1,2
8000027c:	03e70463          	beq	a4,t5,800002a4 <vsprintf+0x74>
80000280:	07d70063          	beq	a4,t4,800002e0 <vsprintf+0xb0>
80000284:	05c70063          	beq	a4,t3,800002c4 <vsprintf+0x94>
80000288:	01178023          	sb	a7,0(a5)
8000028c:	0015c703          	lbu	a4,1(a1)
80000290:	00250513          	addi	a0,a0,2
80000294:	00030593          	mv	a1,t1
80000298:	00e780a3          	sb	a4,1(a5)
8000029c:	00278793          	addi	a5,a5,2
800002a0:	fc5ff06f          	j	80000264 <vsprintf+0x34>
800002a4:	00062703          	lw	a4,0(a2)
800002a8:	00178793          	addi	a5,a5,1
800002ac:	00150513          	addi	a0,a0,1
800002b0:	00074703          	lbu	a4,0(a4)
800002b4:	00460613          	addi	a2,a2,4
800002b8:	00030593          	mv	a1,t1
800002bc:	fee78fa3          	sb	a4,-1(a5)
800002c0:	fa5ff06f          	j	80000264 <vsprintf+0x34>
800002c4:	00062703          	lw	a4,0(a2)
800002c8:	00150513          	addi	a0,a0,1
800002cc:	00460613          	addi	a2,a2,4
800002d0:	00e78023          	sb	a4,0(a5)
800002d4:	00030593          	mv	a1,t1
800002d8:	00178793          	addi	a5,a5,1
800002dc:	f89ff06f          	j	80000264 <vsprintf+0x34>
800002e0:	00062583          	lw	a1,0(a2)
800002e4:	00460613          	addi	a2,a2,4
800002e8:	0005c683          	lbu	a3,0(a1)
800002ec:	02068a63          	beqz	a3,80000320 <vsprintf+0xf0>
800002f0:	00078713          	mv	a4,a5
800002f4:	00d70023          	sb	a3,0(a4)
800002f8:	0015c683          	lbu	a3,1(a1)
800002fc:	00170713          	addi	a4,a4,1
80000300:	00a70833          	add	a6,a4,a0
80000304:	00158593          	addi	a1,a1,1
80000308:	40f80833          	sub	a6,a6,a5
8000030c:	fe0694e3          	bnez	a3,800002f4 <vsprintf+0xc4>
80000310:	00080513          	mv	a0,a6
80000314:	00030593          	mv	a1,t1
80000318:	00070793          	mv	a5,a4
8000031c:	f49ff06f          	j	80000264 <vsprintf+0x34>
80000320:	00050813          	mv	a6,a0
80000324:	00078713          	mv	a4,a5
80000328:	fe9ff06f          	j	80000310 <vsprintf+0xe0>

8000032c <sprintf>:
8000032c:	fc010113          	addi	sp,sp,-64
80000330:	02810313          	addi	t1,sp,40
80000334:	02c12423          	sw	a2,40(sp)
80000338:	00030613          	mv	a2,t1
8000033c:	00112e23          	sw	ra,28(sp)
80000340:	02d12623          	sw	a3,44(sp)
80000344:	02e12823          	sw	a4,48(sp)
80000348:	02f12a23          	sw	a5,52(sp)
8000034c:	03012c23          	sw	a6,56(sp)
80000350:	03112e23          	sw	a7,60(sp)
80000354:	00612623          	sw	t1,12(sp)
80000358:	ed9ff0ef          	jal	80000230 <vsprintf>
8000035c:	01c12083          	lw	ra,28(sp)
80000360:	04010113          	addi	sp,sp,64
80000364:	00008067          	ret
